#include <math.h>
#include <stdio.h>
#include <stdlib.h>
#include <string.h>

int main (){
	char s[260],t[260]={0};
	int  n, i,j,len;
	scanf("%d",&n);
	for(i=0;i<n;i++){
		scanf("%s",s);
		for (j=0;s[j]!='\0';j++){
			if (s[j]=='A'){
				t[j]='T';}
			if(s[j]=='T'){
				t[j]='A';}
			if(s[j]=='C'){
				t[j]='G';}
			if(s[j]=='G'){
				t[j]='C';}
		}
		if(s[j]=='\0'){
			t[j]='\0';}
		printf ("%s\n",t);
	}

	return 0;
}

